; Function Attrs: mustprogress nounwind uwtable
define hidden void @_ZN9metaspace16VirtualSpaceList15create_new_nodeEv(ptr noundef nonnull align 8 dereferenceable(56) %0) local_unnamed_addr #1 align 2 {
  %2 = getelementptr inbounds i8, ptr %0, i64 32
  %3 = load ptr, ptr %2, align 8
  %4 = getelementptr inbounds i8, ptr %0, i64 40
  %5 = getelementptr inbounds i8, ptr %0, i64 48
  %6 = tail call noundef ptr @_ZN9metaspace16VirtualSpaceNode11create_nodeEmPNS_13CommitLimiterEPNS_15AbstractCounterImEES5_(i64 noundef 8388608, ptr noundef %3, ptr noundef nonnull %4, ptr noundef nonnull %5) #8
  %7 = getelementptr inbounds i8, ptr %0, i64 16
  %8 = load volatile ptr, ptr %7, align 8
  store ptr %8, ptr %6, align 8
  tail call void asm sideeffect "", "~{memory},~{dirflag},~{fpsr},~{flags}"() #8, !srcloc !8
  store volatile ptr %6, ptr %7, align 8
  %9 = getelementptr inbounds i8, ptr %0, i64 24
  %10 = load i32, ptr %9, align 8
  %11 = add i32 %10, 1
  store i32 %11, ptr %9, align 8
  ret void
}